target datalayout = "e-m:e-p270:32:32-p271:32:32-p272:64:64-i64:64-i128:128-f80:128-n8:16:32:64-S128"
target triple = "x86_64-pc-linux-gnu"

%struct.jv = type { i8, i8, i16, i32, %union.anon }
%union.anon = type { ptr }
%struct.block = type { ptr, ptr }

@.str.34 = private unnamed_addr constant [4 x i8] c"end\00", align 1
@.str.62 = private unnamed_addr constant [6 x i8] c"start\00", align 1

; Function Attrs: nounwind uwtable
define internal { ptr, ptr } @gen_slice_index(ptr %0, ptr %1, ptr %2, ptr %3, ptr %4, ptr %5, i32 noundef %6) #0 {
  %8 = alloca %struct.block, align 8
  %9 = alloca %struct.block, align 8
  %10 = alloca %struct.block, align 8
  %11 = alloca %struct.block, align 8
  %12 = alloca i32, align 4
  %13 = alloca %struct.block, align 8
  %14 = alloca %struct.block, align 8
  %15 = alloca %struct.block, align 8
  %16 = alloca %struct.block, align 8
  %17 = alloca %struct.block, align 8
  %18 = alloca %struct.block, align 8
  %19 = alloca %struct.block, align 8
  %20 = alloca %struct.block, align 8
  %21 = alloca %struct.jv, align 8
  %22 = alloca %struct.block, align 8
  %23 = alloca %struct.block, align 8
  %24 = alloca %struct.jv, align 8
  %25 = alloca %struct.block, align 8
  %26 = alloca %struct.block, align 8
  %27 = alloca %struct.block, align 8
  %28 = alloca %struct.block, align 8
  %29 = alloca %struct.jv, align 8
  %30 = alloca %struct.block, align 8
  %31 = alloca %struct.block, align 8
  %32 = alloca %struct.block, align 8
  %33 = alloca %struct.block, align 8
  %34 = getelementptr inbounds nuw { ptr, ptr }, ptr %9, i32 0, i32 0
  store ptr %0, ptr %34, align 8
  %35 = getelementptr inbounds nuw { ptr, ptr }, ptr %9, i32 0, i32 1
  store ptr %1, ptr %35, align 8
  %36 = getelementptr inbounds nuw { ptr, ptr }, ptr %10, i32 0, i32 0
  store ptr %2, ptr %36, align 8
  %37 = getelementptr inbounds nuw { ptr, ptr }, ptr %10, i32 0, i32 1
  store ptr %3, ptr %37, align 8
  %38 = getelementptr inbounds nuw { ptr, ptr }, ptr %11, i32 0, i32 0
  store ptr %4, ptr %38, align 8
  %39 = getelementptr inbounds nuw { ptr, ptr }, ptr %11, i32 0, i32 1
  store ptr %5, ptr %39, align 8
  store i32 %6, ptr %12, align 4, !tbaa !18
  call void @llvm.lifetime.start.p0(i64 16, ptr %13) #8
  %40 = call { i64, ptr } @jv_object()
  %41 = getelementptr inbounds nuw { i64, ptr }, ptr %21, i32 0, i32 0
  %42 = extractvalue { i64, ptr } %40, 0
  store i64 %42, ptr %41, align 8
  %43 = getelementptr inbounds nuw { i64, ptr }, ptr %21, i32 0, i32 1
  %44 = extractvalue { i64, ptr } %40, 1
  store ptr %44, ptr %43, align 8
  %45 = getelementptr inbounds nuw { i64, ptr }, ptr %21, i32 0, i32 0
  %46 = load i64, ptr %45, align 8
  %47 = getelementptr inbounds nuw { i64, ptr }, ptr %21, i32 0, i32 1
  %48 = load ptr, ptr %47, align 8
  %49 = call { ptr, ptr } @gen_const(i64 %46, ptr %48)
  %50 = getelementptr inbounds nuw { ptr, ptr }, ptr %20, i32 0, i32 0
  %51 = extractvalue { ptr, ptr } %49, 0
  store ptr %51, ptr %50, align 8
  %52 = getelementptr inbounds nuw { ptr, ptr }, ptr %20, i32 0, i32 1
  %53 = extractvalue { ptr, ptr } %49, 1
  store ptr %53, ptr %52, align 8
  %54 = getelementptr inbounds nuw { ptr, ptr }, ptr %20, i32 0, i32 0
  %55 = load ptr, ptr %54, align 8
  %56 = getelementptr inbounds nuw { ptr, ptr }, ptr %20, i32 0, i32 1
  %57 = load ptr, ptr %56, align 8
  %58 = call { ptr, ptr } @gen_subexp(ptr %55, ptr %57)
  %59 = getelementptr inbounds nuw { ptr, ptr }, ptr %19, i32 0, i32 0
  %60 = extractvalue { ptr, ptr } %58, 0
  store ptr %60, ptr %59, align 8
  %61 = getelementptr inbounds nuw { ptr, ptr }, ptr %19, i32 0, i32 1
  %62 = extractvalue { ptr, ptr } %58, 1
  store ptr %62, ptr %61, align 8
  %63 = call { i64, ptr } @jv_string(ptr noundef @.str.62)
  %64 = getelementptr inbounds nuw { i64, ptr }, ptr %24, i32 0, i32 0
  %65 = extractvalue { i64, ptr } %63, 0
  store i64 %65, ptr %64, align 8
  %66 = getelementptr inbounds nuw { i64, ptr }, ptr %24, i32 0, i32 1
  %67 = extractvalue { i64, ptr } %63, 1
  store ptr %67, ptr %66, align 8
  %68 = getelementptr inbounds nuw { i64, ptr }, ptr %24, i32 0, i32 0
  %69 = load i64, ptr %68, align 8
  %70 = getelementptr inbounds nuw { i64, ptr }, ptr %24, i32 0, i32 1
  %71 = load ptr, ptr %70, align 8
  %72 = call { ptr, ptr } @gen_const(i64 %69, ptr %71)
  %73 = getelementptr inbounds nuw { ptr, ptr }, ptr %23, i32 0, i32 0
  %74 = extractvalue { ptr, ptr } %72, 0
  store ptr %74, ptr %73, align 8
  %75 = getelementptr inbounds nuw { ptr, ptr }, ptr %23, i32 0, i32 1
  %76 = extractvalue { ptr, ptr } %72, 1
  store ptr %76, ptr %75, align 8
  %77 = getelementptr inbounds nuw { ptr, ptr }, ptr %23, i32 0, i32 0
  %78 = load ptr, ptr %77, align 8
  %79 = getelementptr inbounds nuw { ptr, ptr }, ptr %23, i32 0, i32 1
  %80 = load ptr, ptr %79, align 8
  %81 = call { ptr, ptr } @gen_subexp(ptr %78, ptr %80)
  %82 = getelementptr inbounds nuw { ptr, ptr }, ptr %22, i32 0, i32 0
  %83 = extractvalue { ptr, ptr } %81, 0
  store ptr %83, ptr %82, align 8
  %84 = getelementptr inbounds nuw { ptr, ptr }, ptr %22, i32 0, i32 1
  %85 = extractvalue { ptr, ptr } %81, 1
  store ptr %85, ptr %84, align 8
  %86 = getelementptr inbounds nuw { ptr, ptr }, ptr %19, i32 0, i32 0
  %87 = load ptr, ptr %86, align 8
  %88 = getelementptr inbounds nuw { ptr, ptr }, ptr %19, i32 0, i32 1
  %89 = load ptr, ptr %88, align 8
  %90 = getelementptr inbounds nuw { ptr, ptr }, ptr %22, i32 0, i32 0
  %91 = load ptr, ptr %90, align 8
  %92 = getelementptr inbounds nuw { ptr, ptr }, ptr %22, i32 0, i32 1
  %93 = load ptr, ptr %92, align 8
  %94 = call { ptr, ptr } @block_join(ptr %87, ptr %89, ptr %91, ptr %93)
  %95 = getelementptr inbounds nuw { ptr, ptr }, ptr %18, i32 0, i32 0
  %96 = extractvalue { ptr, ptr } %94, 0
  store ptr %96, ptr %95, align 8
  %97 = getelementptr inbounds nuw { ptr, ptr }, ptr %18, i32 0, i32 1
  %98 = extractvalue { ptr, ptr } %94, 1
  store ptr %98, ptr %97, align 8
  %99 = getelementptr inbounds nuw { ptr, ptr }, ptr %10, i32 0, i32 0
  %100 = load ptr, ptr %99, align 8
  %101 = getelementptr inbounds nuw { ptr, ptr }, ptr %10, i32 0, i32 1
  %102 = load ptr, ptr %101, align 8
  %103 = call { ptr, ptr } @gen_subexp(ptr %100, ptr %102)
  %104 = getelementptr inbounds nuw { ptr, ptr }, ptr %25, i32 0, i32 0
  %105 = extractvalue { ptr, ptr } %103, 0
  store ptr %105, ptr %104, align 8
  %106 = getelementptr inbounds nuw { ptr, ptr }, ptr %25, i32 0, i32 1
  %107 = extractvalue { ptr, ptr } %103, 1
  store ptr %107, ptr %106, align 8
  %108 = getelementptr inbounds nuw { ptr, ptr }, ptr %18, i32 0, i32 0
  %109 = load ptr, ptr %108, align 8
  %110 = getelementptr inbounds nuw { ptr, ptr }, ptr %18, i32 0, i32 1
  %111 = load ptr, ptr %110, align 8
  %112 = getelementptr inbounds nuw { ptr, ptr }, ptr %25, i32 0, i32 0
  %113 = load ptr, ptr %112, align 8
  %114 = getelementptr inbounds nuw { ptr, ptr }, ptr %25, i32 0, i32 1
  %115 = load ptr, ptr %114, align 8
  %116 = call { ptr, ptr } @block_join(ptr %109, ptr %111, ptr %113, ptr %115)
  %117 = getelementptr inbounds nuw { ptr, ptr }, ptr %17, i32 0, i32 0
  %118 = extractvalue { ptr, ptr } %116, 0
  store ptr %118, ptr %117, align 8
  %119 = getelementptr inbounds nuw { ptr, ptr }, ptr %17, i32 0, i32 1
  %120 = extractvalue { ptr, ptr } %116, 1
  store ptr %120, ptr %119, align 8
  %121 = call { ptr, ptr } @gen_op_simple(i32 noundef 21)
  %122 = getelementptr inbounds nuw { ptr, ptr }, ptr %26, i32 0, i32 0
  %123 = extractvalue { ptr, ptr } %121, 0
  store ptr %123, ptr %122, align 8
  %124 = getelementptr inbounds nuw { ptr, ptr }, ptr %26, i32 0, i32 1
  %125 = extractvalue { ptr, ptr } %121, 1
  store ptr %125, ptr %124, align 8
  %126 = getelementptr inbounds nuw { ptr, ptr }, ptr %17, i32 0, i32 0
  %127 = load ptr, ptr %126, align 8
  %128 = getelementptr inbounds nuw { ptr, ptr }, ptr %17, i32 0, i32 1
  %129 = load ptr, ptr %128, align 8
  %130 = getelementptr inbounds nuw { ptr, ptr }, ptr %26, i32 0, i32 0
  %131 = load ptr, ptr %130, align 8
  %132 = getelementptr inbounds nuw { ptr, ptr }, ptr %26, i32 0, i32 1
  %133 = load ptr, ptr %132, align 8
  %134 = call { ptr, ptr } @block_join(ptr %127, ptr %129, ptr %131, ptr %133)
  %135 = getelementptr inbounds nuw { ptr, ptr }, ptr %16, i32 0, i32 0
  %136 = extractvalue { ptr, ptr } %134, 0
  store ptr %136, ptr %135, align 8
  %137 = getelementptr inbounds nuw { ptr, ptr }, ptr %16, i32 0, i32 1
  %138 = extractvalue { ptr, ptr } %134, 1
  store ptr %138, ptr %137, align 8
  %139 = call { i64, ptr } @jv_string(ptr noundef @.str.34)
  %140 = getelementptr inbounds nuw { i64, ptr }, ptr %29, i32 0, i32 0
  %141 = extractvalue { i64, ptr } %139, 0
  store i64 %141, ptr %140, align 8
  %142 = getelementptr inbounds nuw { i64, ptr }, ptr %29, i32 0, i32 1
  %143 = extractvalue { i64, ptr } %139, 1
  store ptr %143, ptr %142, align 8
  %144 = getelementptr inbounds nuw { i64, ptr }, ptr %29, i32 0, i32 0
  %145 = load i64, ptr %144, align 8
  %146 = getelementptr inbounds nuw { i64, ptr }, ptr %29, i32 0, i32 1
  %147 = load ptr, ptr %146, align 8
  %148 = call { ptr, ptr } @gen_const(i64 %145, ptr %147)
  %149 = getelementptr inbounds nuw { ptr, ptr }, ptr %28, i32 0, i32 0
  %150 = extractvalue { ptr, ptr } %148, 0
  store ptr %150, ptr %149, align 8
  %151 = getelementptr inbounds nuw { ptr, ptr }, ptr %28, i32 0, i32 1
  %152 = extractvalue { ptr, ptr } %148, 1
  store ptr %152, ptr %151, align 8
  %153 = getelementptr inbounds nuw { ptr, ptr }, ptr %28, i32 0, i32 0
  %154 = load ptr, ptr %153, align 8
  %155 = getelementptr inbounds nuw { ptr, ptr }, ptr %28, i32 0, i32 1
  %156 = load ptr, ptr %155, align 8
  %157 = call { ptr, ptr } @gen_subexp(ptr %154, ptr %156)
  %158 = getelementptr inbounds nuw { ptr, ptr }, ptr %27, i32 0, i32 0
  %159 = extractvalue { ptr, ptr } %157, 0
  store ptr %159, ptr %158, align 8
  %160 = getelementptr inbounds nuw { ptr, ptr }, ptr %27, i32 0, i32 1
  %161 = extractvalue { ptr, ptr } %157, 1
  store ptr %161, ptr %160, align 8
  %162 = getelementptr inbounds nuw { ptr, ptr }, ptr %16, i32 0, i32 0
  %163 = load ptr, ptr %162, align 8
  %164 = getelementptr inbounds nuw { ptr, ptr }, ptr %16, i32 0, i32 1
  %165 = load ptr, ptr %164, align 8
  %166 = getelementptr inbounds nuw { ptr, ptr }, ptr %27, i32 0, i32 0
  %167 = load ptr, ptr %166, align 8
  %168 = getelementptr inbounds nuw { ptr, ptr }, ptr %27, i32 0, i32 1
  %169 = load ptr, ptr %168, align 8
  %170 = call { ptr, ptr } @block_join(ptr %163, ptr %165, ptr %167, ptr %169)
  %171 = getelementptr inbounds nuw { ptr, ptr }, ptr %15, i32 0, i32 0
  %172 = extractvalue { ptr, ptr } %170, 0
  store ptr %172, ptr %171, align 8
  %173 = getelementptr inbounds nuw { ptr, ptr }, ptr %15, i32 0, i32 1
  %174 = extractvalue { ptr, ptr } %170, 1
  store ptr %174, ptr %173, align 8
  %175 = getelementptr inbounds nuw { ptr, ptr }, ptr %11, i32 0, i32 0
  %176 = load ptr, ptr %175, align 8
  %177 = getelementptr inbounds nuw { ptr, ptr }, ptr %11, i32 0, i32 1
  %178 = load ptr, ptr %177, align 8
  %179 = call { ptr, ptr } @gen_subexp(ptr %176, ptr %178)
  %180 = getelementptr inbounds nuw { ptr, ptr }, ptr %30, i32 0, i32 0
  %181 = extractvalue { ptr, ptr } %179, 0
  store ptr %181, ptr %180, align 8
  %182 = getelementptr inbounds nuw { ptr, ptr }, ptr %30, i32 0, i32 1
  %183 = extractvalue { ptr, ptr } %179, 1
  store ptr %183, ptr %182, align 8
  %184 = getelementptr inbounds nuw { ptr, ptr }, ptr %15, i32 0, i32 0
  %185 = load ptr, ptr %184, align 8
  %186 = getelementptr inbounds nuw { ptr, ptr }, ptr %15, i32 0, i32 1
  %187 = load ptr, ptr %186, align 8
  %188 = getelementptr inbounds nuw { ptr, ptr }, ptr %30, i32 0, i32 0
  %189 = load ptr, ptr %188, align 8
  %190 = getelementptr inbounds nuw { ptr, ptr }, ptr %30, i32 0, i32 1
  %191 = load ptr, ptr %190, align 8
  %192 = call { ptr, ptr } @block_join(ptr %185, ptr %187, ptr %189, ptr %191)
  %193 = getelementptr inbounds nuw { ptr, ptr }, ptr %14, i32 0, i32 0
  %194 = extractvalue { ptr, ptr } %192, 0
  store ptr %194, ptr %193, align 8
  %195 = getelementptr inbounds nuw { ptr, ptr }, ptr %14, i32 0, i32 1
  %196 = extractvalue { ptr, ptr } %192, 1
  store ptr %196, ptr %195, align 8
  %197 = call { ptr, ptr } @gen_op_simple(i32 noundef 21)
  %198 = getelementptr inbounds nuw { ptr, ptr }, ptr %31, i32 0, i32 0
  %199 = extractvalue { ptr, ptr } %197, 0
  store ptr %199, ptr %198, align 8
  %200 = getelementptr inbounds nuw { ptr, ptr }, ptr %31, i32 0, i32 1
  %201 = extractvalue { ptr, ptr } %197, 1
  store ptr %201, ptr %200, align 8
  %202 = getelementptr inbounds nuw { ptr, ptr }, ptr %14, i32 0, i32 0
  %203 = load ptr, ptr %202, align 8
  %204 = getelementptr inbounds nuw { ptr, ptr }, ptr %14, i32 0, i32 1
  %205 = load ptr, ptr %204, align 8
  %206 = getelementptr inbounds nuw { ptr, ptr }, ptr %31, i32 0, i32 0
  %207 = load ptr, ptr %206, align 8
  %208 = getelementptr inbounds nuw { ptr, ptr }, ptr %31, i32 0, i32 1
  %209 = load ptr, ptr %208, align 8
  %210 = call { ptr, ptr } @block_join(ptr %203, ptr %205, ptr %207, ptr %209)
  %211 = getelementptr inbounds nuw { ptr, ptr }, ptr %13, i32 0, i32 0
  %212 = extractvalue { ptr, ptr } %210, 0
  store ptr %212, ptr %211, align 8
  %213 = getelementptr inbounds nuw { ptr, ptr }, ptr %13, i32 0, i32 1
  %214 = extractvalue { ptr, ptr } %210, 1
  store ptr %214, ptr %213, align 8
  %215 = getelementptr inbounds nuw { ptr, ptr }, ptr %13, i32 0, i32 0
  %216 = load ptr, ptr %215, align 8
  %217 = getelementptr inbounds nuw { ptr, ptr }, ptr %13, i32 0, i32 1
  %218 = load ptr, ptr %217, align 8
  %219 = getelementptr inbounds nuw { ptr, ptr }, ptr %9, i32 0, i32 0
  %220 = load ptr, ptr %219, align 8
  %221 = getelementptr inbounds nuw { ptr, ptr }, ptr %9, i32 0, i32 1
  %222 = load ptr, ptr %221, align 8
  %223 = call { ptr, ptr } @block_join(ptr %216, ptr %218, ptr %220, ptr %222)
  %224 = getelementptr inbounds nuw { ptr, ptr }, ptr %32, i32 0, i32 0
  %225 = extractvalue { ptr, ptr } %223, 0
  store ptr %225, ptr %224, align 8
  %226 = getelementptr inbounds nuw { ptr, ptr }, ptr %32, i32 0, i32 1
  %227 = extractvalue { ptr, ptr } %223, 1
  store ptr %227, ptr %226, align 8
  %228 = load i32, ptr %12, align 4, !tbaa !18
  %229 = call { ptr, ptr } @gen_op_simple(i32 noundef %228)
  %230 = getelementptr inbounds nuw { ptr, ptr }, ptr %33, i32 0, i32 0
  %231 = extractvalue { ptr, ptr } %229, 0
  store ptr %231, ptr %230, align 8
  %232 = getelementptr inbounds nuw { ptr, ptr }, ptr %33, i32 0, i32 1
  %233 = extractvalue { ptr, ptr } %229, 1
  store ptr %233, ptr %232, align 8
  %234 = getelementptr inbounds nuw { ptr, ptr }, ptr %32, i32 0, i32 0
  %235 = load ptr, ptr %234, align 8
  %236 = getelementptr inbounds nuw { ptr, ptr }, ptr %32, i32 0, i32 1
  %237 = load ptr, ptr %236, align 8
  %238 = getelementptr inbounds nuw { ptr, ptr }, ptr %33, i32 0, i32 0
  %239 = load ptr, ptr %238, align 8
  %240 = getelementptr inbounds nuw { ptr, ptr }, ptr %33, i32 0, i32 1
  %241 = load ptr, ptr %240, align 8
  %242 = call { ptr, ptr } @block_join(ptr %235, ptr %237, ptr %239, ptr %241)
  %243 = getelementptr inbounds nuw { ptr, ptr }, ptr %8, i32 0, i32 0
  %244 = extractvalue { ptr, ptr } %242, 0
  store ptr %244, ptr %243, align 8
  %245 = getelementptr inbounds nuw { ptr, ptr }, ptr %8, i32 0, i32 1
  %246 = extractvalue { ptr, ptr } %242, 1
  store ptr %246, ptr %245, align 8
  call void @llvm.lifetime.end.p0(i64 16, ptr %13) #8
  %247 = load { ptr, ptr }, ptr %8, align 8
  ret { ptr, ptr } %247
}