; Function Attrs: nounwind uwtable
define internal fastcc { ptr, ptr } @gen_slice_index(ptr %0, ptr %1, ptr %2, ptr %3, ptr %4, ptr %5, i32 noundef range(i32 10, 12) %6) unnamed_addr #0 {
  %8 = tail call { i64, ptr } @jv_object() #10
  %9 = extractvalue { i64, ptr } %8, 0
  %10 = extractvalue { i64, ptr } %8, 1
  %11 = tail call { ptr, ptr } @gen_const(i64 %9, ptr %10) #10
  %12 = extractvalue { ptr, ptr } %11, 0
  %13 = extractvalue { ptr, ptr } %11, 1
  %14 = tail call { ptr, ptr } @gen_subexp(ptr %12, ptr %13) #10
  %15 = extractvalue { ptr, ptr } %14, 0
  %16 = extractvalue { ptr, ptr } %14, 1
  %17 = tail call { i64, ptr } @jv_string(ptr noundef nonnull @.str.62) #10
  %18 = extractvalue { i64, ptr } %17, 0
  %19 = extractvalue { i64, ptr } %17, 1
  %20 = tail call { ptr, ptr } @gen_const(i64 %18, ptr %19) #10
  %21 = extractvalue { ptr, ptr } %20, 0
  %22 = extractvalue { ptr, ptr } %20, 1
  %23 = tail call { ptr, ptr } @gen_subexp(ptr %21, ptr %22) #10
  %24 = extractvalue { ptr, ptr } %23, 0
  %25 = extractvalue { ptr, ptr } %23, 1
  %26 = tail call { ptr, ptr } @block_join(ptr %15, ptr %16, ptr %24, ptr %25) #10
  %27 = extractvalue { ptr, ptr } %26, 0
  %28 = extractvalue { ptr, ptr } %26, 1
  %29 = tail call { ptr, ptr } @gen_subexp(ptr %2, ptr %3) #10
  %30 = extractvalue { ptr, ptr } %29, 0
  %31 = extractvalue { ptr, ptr } %29, 1
  %32 = tail call { ptr, ptr } @block_join(ptr %27, ptr %28, ptr %30, ptr %31) #10
  %33 = extractvalue { ptr, ptr } %32, 0
  %34 = extractvalue { ptr, ptr } %32, 1
  %35 = tail call { ptr, ptr } @gen_op_simple(i32 noundef 21) #10
  %36 = extractvalue { ptr, ptr } %35, 0
  %37 = extractvalue { ptr, ptr } %35, 1
  %38 = tail call { ptr, ptr } @block_join(ptr %33, ptr %34, ptr %36, ptr %37) #10
  %39 = extractvalue { ptr, ptr } %38, 0
  %40 = extractvalue { ptr, ptr } %38, 1
  %41 = tail call { i64, ptr } @jv_string(ptr noundef nonnull @.str.34) #10
  %42 = extractvalue { i64, ptr } %41, 0
  %43 = extractvalue { i64, ptr } %41, 1
  %44 = tail call { ptr, ptr } @gen_const(i64 %42, ptr %43) #10
  %45 = extractvalue { ptr, ptr } %44, 0
  %46 = extractvalue { ptr, ptr } %44, 1
  %47 = tail call { ptr, ptr } @gen_subexp(ptr %45, ptr %46) #10
  %48 = extractvalue { ptr, ptr } %47, 0
  %49 = extractvalue { ptr, ptr } %47, 1
  %50 = tail call { ptr, ptr } @block_join(ptr %39, ptr %40, ptr %48, ptr %49) #10
  %51 = extractvalue { ptr, ptr } %50, 0
  %52 = extractvalue { ptr, ptr } %50, 1
  %53 = tail call { ptr, ptr } @gen_subexp(ptr %4, ptr %5) #10
  %54 = extractvalue { ptr, ptr } %53, 0
  %55 = extractvalue { ptr, ptr } %53, 1
  %56 = tail call { ptr, ptr } @block_join(ptr %51, ptr %52, ptr %54, ptr %55) #10
  %57 = extractvalue { ptr, ptr } %56, 0
  %58 = extractvalue { ptr, ptr } %56, 1
  %59 = tail call { ptr, ptr } @gen_op_simple(i32 noundef 21) #10
  %60 = extractvalue { ptr, ptr } %59, 0
  %61 = extractvalue { ptr, ptr } %59, 1
  %62 = tail call { ptr, ptr } @block_join(ptr %57, ptr %58, ptr %60, ptr %61) #10
  %63 = extractvalue { ptr, ptr } %62, 0
  %64 = extractvalue { ptr, ptr } %62, 1
  %65 = tail call { ptr, ptr } @block_join(ptr %63, ptr %64, ptr %0, ptr %1) #10
  %66 = extractvalue { ptr, ptr } %65, 0
  %67 = extractvalue { ptr, ptr } %65, 1
  %68 = tail call { ptr, ptr } @gen_op_simple(i32 noundef %6) #10
  %69 = extractvalue { ptr, ptr } %68, 0
  %70 = extractvalue { ptr, ptr } %68, 1
  %71 = tail call { ptr, ptr } @block_join(ptr %66, ptr %67, ptr %69, ptr %70) #10
  ret { ptr, ptr } %71
}